target datalayout = "e-m:e-p270:32:32-p271:32:32-p272:64:64-i64:64-i128:128-f80:128-n8:16:32:64-S128"
target triple = "x86_64-pc-linux-gnu"

@.str.365 = private unnamed_addr constant [7 x i8] c"Thread\00", align 1
@.str.366 = private unnamed_addr constant [7 x i8] c"thread\00", align 1
@proto_thread = internal global i32 0, align 4
@.str.367 = private unnamed_addr constant [16 x i8] c"thr_coap_decode\00", align 1
@.str.368 = private unnamed_addr constant [12 x i8] c"thr_seq_ctr\00", align 1
@.str.369 = private unnamed_addr constant [24 x i8] c"Thread sequence counter\00", align 1
@.str.370 = private unnamed_addr constant [33 x i8] c"32-bit sequence counter for hash\00", align 1
@thread_seq_ctr_str = internal global ptr null, align 8
@.str.371 = private unnamed_addr constant [22 x i8] c"thr_use_pan_id_in_key\00", align 1
@.str.372 = private unnamed_addr constant [45 x i8] c"Use PAN ID as first two octets of master key\00", align 1
@.str.373 = private unnamed_addr constant [113 x i8] c"Set if the PAN ID should be used as the first two octets of the master key (PAN ID LSB), (PAN ID MSB), Key[2]...\00", align 1
@thread_use_pan_id_in_key = internal global i8 0, align 1
@.str.374 = private unnamed_addr constant [25 x i8] c"thr_auto_acq_thr_seq_ctr\00", align 1
@.str.375 = private unnamed_addr constant [46 x i8] c"Automatically acquire Thread sequence counter\00", align 1
@.str.376 = private unnamed_addr constant [101 x i8] c"Set if the Thread sequence counter should be automatically acquired from Key ID mode 2 MLE messages.\00", align 1
@thread_auto_acq_seq_ctr = internal global i8 1, align 1
@.str.377 = private unnamed_addr constant [10 x i8] c"thread_ie\00", align 1
@proto_thread_ie = internal global i32 0, align 4

; Function Attrs: null_pointer_is_valid sspstrong uwtable
define hidden void @proto_register_thread() #0 {
  %1 = alloca ptr, align 8
  call void @llvm.lifetime.start.p0(i64 8, ptr %1) #9
  %2 = call i32 @proto_register_protocol(ptr noundef @.str.365, ptr noundef @.str.365, ptr noundef @.str.366)
  store i32 %2, ptr @proto_thread, align 4
  %3 = load i32, ptr @proto_thread, align 4
  %4 = call ptr @prefs_register_protocol(i32 noundef %3, ptr noundef null)
  store ptr %4, ptr %1, align 8
  %5 = load ptr, ptr %1, align 8
  call void @prefs_register_obsolete_preference(ptr noundef %5, ptr noundef @.str.367)
  %6 = load ptr, ptr %1, align 8
  call void @prefs_register_string_preference(ptr noundef %6, ptr noundef @.str.368, ptr noundef @.str.369, ptr noundef @.str.370, ptr noundef @thread_seq_ctr_str)
  %7 = load ptr, ptr %1, align 8
  call void @prefs_register_bool_preference(ptr noundef %7, ptr noundef @.str.371, ptr noundef @.str.372, ptr noundef @.str.373, ptr noundef @thread_use_pan_id_in_key)
  %8 = load ptr, ptr %1, align 8
  call void @prefs_register_bool_preference(ptr noundef %8, ptr noundef @.str.374, ptr noundef @.str.375, ptr noundef @.str.376, ptr noundef @thread_auto_acq_seq_ctr)
  call void @register_init_routine(ptr noundef @proto_init_thread)
  %9 = load i32, ptr @proto_thread_ie, align 4
  %10 = call ptr @register_dissector(ptr noundef @.str.377, ptr noundef @dissect_thread_ie, i32 noundef %9)
  call void @llvm.lifetime.end.p0(i64 8, ptr %1) #9
  ret void
}