; Function Attrs: null_pointer_is_valid sspstrong uwtable
define hidden void @proto_register_thread() local_unnamed_addr #0 {
  %1 = tail call i32 @proto_register_protocol(ptr noundef nonnull @.str.365, ptr noundef nonnull @.str.365, ptr noundef nonnull @.str.366)
  %2 = tail call ptr @prefs_register_protocol(i32 noundef %1, ptr noundef null)
  tail call void @prefs_register_obsolete_preference(ptr noundef %2, ptr noundef nonnull @.str.367)
  tail call void @prefs_register_string_preference(ptr noundef %2, ptr noundef nonnull @.str.368, ptr noundef nonnull @.str.369, ptr noundef nonnull @.str.370, ptr noundef nonnull @thread_seq_ctr_str)
  tail call void @prefs_register_bool_preference(ptr noundef %2, ptr noundef nonnull @.str.371, ptr noundef nonnull @.str.372, ptr noundef nonnull @.str.373, ptr noundef nonnull @thread_use_pan_id_in_key)
  tail call void @prefs_register_bool_preference(ptr noundef %2, ptr noundef nonnull @.str.374, ptr noundef nonnull @.str.375, ptr noundef nonnull @.str.376, ptr noundef nonnull @thread_auto_acq_seq_ctr)
  tail call void @register_init_routine(ptr noundef nonnull @proto_init_thread)
  %3 = tail call ptr @register_dissector(ptr noundef nonnull @.str.377, ptr noundef nonnull @dissect_thread_ie, i32 noundef 0)
  ret void
}